target datalayout = "e-m:e-p270:32:32-p271:32:32-p272:64:64-i64:64-i128:128-f80:128-n8:16:32:64-S128"
target triple = "x86_64-pc-linux-gnu"

%struct.SplashStream = type { ptr, ptr, ptr, %union.anon }
%union.anon = type { %struct.anon.0 }
%struct.anon.0 = type { ptr, ptr }
%struct.anon = type { ptr }

@.str = private unnamed_addr constant [3 x i8] c"rb\00", align 1

; Function Attrs: nounwind uwtable
define hidden i32 @SplashStreamInitFile(ptr noundef %0, ptr noundef %1) #0 {
  %3 = alloca ptr, align 8
  %4 = alloca ptr, align 8
  store ptr %0, ptr %3, align 8
  store ptr %1, ptr %4, align 8
  %5 = load ptr, ptr %4, align 8
  %6 = call noalias ptr @fopen64(ptr noundef %5, ptr noundef @.str)
  %7 = load ptr, ptr %3, align 8
  %8 = getelementptr inbounds %struct.SplashStream, ptr %7, i32 0, i32 3
  %9 = getelementptr inbounds %struct.anon, ptr %8, i32 0, i32 0
  store ptr %6, ptr %9, align 8
  %10 = load ptr, ptr %3, align 8
  %11 = getelementptr inbounds %struct.SplashStream, ptr %10, i32 0, i32 0
  store ptr @readFile, ptr %11, align 8
  %12 = load ptr, ptr %3, align 8
  %13 = getelementptr inbounds %struct.SplashStream, ptr %12, i32 0, i32 1
  store ptr @peekFile, ptr %13, align 8
  %14 = load ptr, ptr %3, align 8
  %15 = getelementptr inbounds %struct.SplashStream, ptr %14, i32 0, i32 2
  store ptr @closeFile, ptr %15, align 8
  %16 = load ptr, ptr %3, align 8
  %17 = getelementptr inbounds %struct.SplashStream, ptr %16, i32 0, i32 3
  %18 = getelementptr inbounds %struct.anon, ptr %17, i32 0, i32 0
  %19 = load ptr, ptr %18, align 8
  %20 = icmp ne ptr %19, null
  %21 = zext i1 %20 to i32
  ret i32 %21
}

; Function Attrs: nounwind uwtable
define i32 @SplashLoadFile(ptr noundef %0) #0 {
  %2 = alloca ptr, align 8
  %3 = alloca %struct.SplashStream, align 8
  store ptr %0, ptr %2, align 8
  %4 = load ptr, ptr %2, align 8
  %5 = call i32 @SplashStreamInitFile(ptr noundef %3, ptr noundef %4)
  %6 = icmp ne i32 %5, 0
  br i1 %6, label %7, label %10

7:                                                ; preds = %1
  %8 = call i32 @SplashLoadStream(ptr noundef %3)
  %9 = icmp ne i32 %8, 0
  br label %10

10:                                               ; preds = %7, %1
  %11 = phi i1 [ false, %1 ], [ %9, %7 ]
  %12 = zext i1 %11 to i32
  ret i32 %12
}