; Function Attrs: nounwind uwtable
define range(i32 0, 2) i32 @SplashLoadFile(ptr nocapture noundef readonly %0) local_unnamed_addr #2 {
  %2 = alloca %struct.SplashStream, align 8
  %3 = tail call noalias ptr @fopen64(ptr noundef readonly %0, ptr noundef nonnull @.str)
  %4 = getelementptr inbounds i8, ptr %2, i64 24
  store ptr %3, ptr %4, align 8
  store ptr @readFile, ptr %2, align 8
  %5 = getelementptr inbounds i8, ptr %2, i64 8
  store ptr @peekFile, ptr %5, align 8
  %6 = getelementptr inbounds i8, ptr %2, i64 16
  store ptr @closeFile, ptr %6, align 8
  %.not1 = icmp eq ptr %3, null
  br i1 %.not1, label %11, label %7

7:                                                ; preds = %1
  %8 = call fastcc i32 @SplashLoadStream(ptr noundef nonnull %2)
  %9 = icmp ne i32 %8, 0
  %10 = zext i1 %9 to i32
  br label %11

11:                                               ; preds = %7, %1
  %12 = phi i32 [ 0, %1 ], [ %10, %7 ]
  ret i32 %12
}